Certificate Request:
    Data:
        Version: 1 (0x0)
        Subject: CN=fmerinocasallo_writer
        Subject Public Key Info:
            Public Key Algorithm: rsaEncryption
                Public-Key: (2048 bit)
                Modulus:
                    00:d1:19:9b:38:41:e6:86:8d:c9:51:58:2e:ab:0b:
                    b6:2d:13:66:ab:1d:fb:a2:0b:43:29:43:e2:88:a3:
                    8d:40:97:f9:b0:7f:bd:12:d8:9d:ae:2c:57:83:d1:
                    2d:9f:9c:59:9e:d1:65:6a:c5:c9:ed:43:9b:09:50:
                    8d:8e:82:2d:85:19:30:5b:27:86:ae:22:84:db:2d:
                    9c:78:c1:b6:36:1b:d4:34:a7:20:74:a3:1f:24:94:
                    a8:8d:0f:af:c7:73:e0:d1:5d:27:bf:17:6f:aa:9c:
                    be:45:23:0a:0d:0b:ca:e9:b9:78:1c:74:84:59:18:
                    86:b7:ec:12:63:33:02:63:5f:4b:02:30:2f:53:b7:
                    4d:88:89:05:af:a5:ee:8d:a6:b4:f9:6f:90:9e:32:
                    82:51:56:37:42:af:81:b5:bb:c0:8e:14:79:c3:26:
                    73:f3:cb:d4:9e:b9:72:1a:da:d1:e5:c8:80:b5:50:
                    c8:eb:80:21:9a:0e:7e:8a:f6:e2:da:ab:86:e6:48:
                    5e:17:aa:4e:a2:0d:4c:47:8d:37:4f:e3:5b:42:2a:
                    45:d5:05:3d:3d:62:06:b6:1c:5a:b0:c7:45:89:f8:
                    49:e5:95:7e:f7:76:9f:94:51:f1:74:54:bc:08:17:
                    8a:93:e3:4a:16:63:7e:af:5d:bd:8b:ea:6e:ac:31:
                    b1:d5
                Exponent: 65537 (0x10001)
        Attributes:
            (none)
            Requested Extensions:
    Signature Algorithm: sha256WithRSAEncryption
    Signature Value:
        14:ed:19:cc:f9:bd:3a:a2:62:91:97:f3:25:af:95:18:3d:c4:
        0b:a7:f0:0c:f7:91:63:ad:97:b9:83:3d:e8:ef:87:12:11:c0:
        0d:dd:e8:78:f7:5e:7d:3f:05:08:75:27:44:eb:c1:50:d0:6f:
        18:7e:ea:71:f1:eb:03:d9:47:5f:5b:f5:e7:6e:57:a9:5b:9c:
        2d:3a:1c:4e:a8:f3:91:4b:b6:1b:98:b0:4e:64:29:98:9a:99:
        fe:f0:b5:16:93:e0:31:c7:53:ac:ab:5f:18:c2:2e:b4:d4:6f:
        d9:d2:59:ec:4d:49:f3:d2:61:e8:77:56:c9:6d:3b:5e:47:d3:
        45:c2:48:ef:1d:cb:64:12:6c:c6:a5:8f:69:66:23:4d:ad:14:
        92:8d:04:f6:56:1b:2d:ff:a8:ca:eb:69:28:b0:b9:32:a4:70:
        91:41:4a:ef:fc:f4:53:f0:44:84:ec:5c:68:57:97:01:f1:0e:
        98:6e:bb:1a:88:d5:ef:a4:ae:b4:63:ae:68:48:e8:1d:b0:28:
        86:4b:fa:3f:ff:78:bb:4b:b1:ad:fa:4f:3d:2c:27:4d:b1:13:
        ab:a7:a8:a7:62:39:16:67:d3:c9:54:d2:6b:69:69:1e:5e:57:
        5e:8b:dc:05:52:88:ec:58:89:e4:f1:2e:2d:c3:dc:5b:09:08:
        fb:22:f2:aa
-----BEGIN CERTIFICATE REQUEST-----
MIICZTCCAU0CAQAwIDEeMBwGA1UEAwwVZm1lcmlub2Nhc2FsbG9fd3JpdGVyMIIB
IjANBgkqhkiG9w0BAQEFAAOCAQ8AMIIBCgKCAQEA0RmbOEHmho3JUVguqwu2LRNm
qx37ogtDKUPiiKONQJf5sH+9EtidrixXg9Etn5xZntFlasXJ7UObCVCNjoIthRkw
WyeGriKE2y2ceMG2NhvUNKcgdKMfJJSojQ+vx3Pg0V0nvxdvqpy+RSMKDQvK6bl4
HHSEWRiGt+wSYzMCY19LAjAvU7dNiIkFr6Xujaa0+W+QnjKCUVY3Qq+BtbvAjhR5
wyZz88vUnrlyGtrR5ciAtVDI64Ahmg5+ivbi2quG5kheF6pOog1MR403T+NbQipF
1QU9PWIGthxasMdFifhJ5ZV+93aflFHxdFS8CBeKk+NKFmN+r129i+purDGx1QID
AQABoAAwDQYJKoZIhvcNAQELBQADggEBABTtGcz5vTqiYpGX8yWvlRg9xAun8Az3
kWOtl7mDPejvhxIRwA3d6Hj3Xn0/BQh1J0TrwVDQbxh+6nHx6wPZR19b9eduV6lb
nC06HE6o85FLthuYsE5kKZiamf7wtRaT4DHHU6yrXxjCLrTUb9nSWexNSfPSYeh3
VsltO15H00XCSO8dy2QSbMalj2lmI02tFJKNBPZWGy3/qMrraSiwuTKkcJFBSu/8
9FPwRITsXGhXlwHxDphuuxqI1e+krrRjrmhI6B2wKIZL+j//eLtLsa36Tz0sJ02x
E6unqKdiORZn08lU0mtpaR5eV16L3AVSiOxYieTxLi3D3FsJCPsi8qo=
-----END CERTIFICATE REQUEST-----
