Certificate Request:
    Data:
        Version: 1 (0x0)
        Subject: CN=172.19.0.50
        Subject Public Key Info:
            Public Key Algorithm: rsaEncryption
                Public-Key: (2048 bit)
                Modulus:
                    00:c2:2d:f3:c7:ea:2c:68:45:0b:83:c6:d6:59:2f:
                    e8:af:00:88:49:a9:e0:da:b3:fa:2e:b8:9f:f1:f4:
                    b6:0e:1a:e0:44:d5:b2:84:be:bb:50:2a:98:6d:b1:
                    d7:a5:ac:79:74:e0:a8:ae:d5:94:99:04:55:31:ab:
                    1e:0d:1d:40:f9:dd:ce:ae:f6:e0:5e:1d:94:51:cf:
                    67:ef:2b:8c:92:76:fe:58:f2:59:43:da:8e:d7:30:
                    de:1b:e9:c2:f8:fe:2c:10:64:90:31:24:93:c4:92:
                    9a:8f:35:0c:17:50:a7:24:a1:2c:25:1e:7d:38:fb:
                    09:05:25:5b:27:5e:61:69:49:ba:ff:53:79:cf:61:
                    70:e9:f4:68:64:b2:ee:6d:89:d8:a9:5b:bb:24:d8:
                    4d:d4:ef:30:b5:40:ec:14:87:0e:47:e6:ca:18:41:
                    5b:d1:b1:4f:e7:74:b9:56:93:41:a7:15:02:c6:14:
                    51:00:66:d3:7b:6a:13:ee:43:8b:ed:59:9b:6b:5a:
                    97:ba:b8:8b:2d:db:1a:eb:d8:48:34:33:b9:aa:b9:
                    71:f6:10:56:61:58:f4:6f:5e:6c:6c:91:d5:72:59:
                    41:04:6e:7d:96:2c:d4:cf:e0:2a:3e:01:66:49:39:
                    37:61:d0:ec:f7:3f:12:00:17:dd:82:37:4c:d6:59:
                    42:45
                Exponent: 65537 (0x10001)
        Attributes:
            (none)
            Requested Extensions:
    Signature Algorithm: sha256WithRSAEncryption
    Signature Value:
        07:6e:78:e8:a8:98:00:2d:7b:25:27:5e:1b:49:6e:b8:7f:8d:
        e6:5b:50:ba:0d:6b:8b:77:34:e2:a3:ba:b6:62:40:21:87:0f:
        9b:41:bc:7f:7c:d2:01:cc:aa:12:68:8b:b2:67:f4:b4:71:40:
        cd:80:f9:37:1c:d9:26:7c:ef:51:17:a1:8c:a6:5b:09:14:98:
        4e:15:b0:01:e7:20:20:2c:42:78:7f:a3:17:46:e5:fb:90:2f:
        87:36:93:e2:cb:22:9b:83:9a:ac:db:1a:fa:83:43:7d:4e:2f:
        d1:6d:97:6f:0f:96:50:45:41:a4:e2:6d:01:33:91:da:1b:15:
        a7:e9:28:0c:6e:57:fa:e6:23:73:32:06:9e:30:c7:9d:b5:b4:
        7f:e4:b1:21:f9:4b:89:7e:fe:4c:68:6e:6a:11:18:4e:f3:c7:
        4b:a3:42:9a:a3:bc:a6:4a:53:ca:01:f1:01:b6:5a:7e:42:0d:
        f5:8e:0f:3f:80:32:ca:b5:ad:09:04:2f:b4:84:76:a0:a4:0c:
        71:f9:87:79:d9:51:10:bf:b6:93:a4:b5:16:d4:50:f8:c4:07:
        9b:c4:4b:89:20:9f:7f:9e:eb:f2:a2:a7:6c:1e:7f:6e:98:eb:
        de:fd:93:0f:ad:f7:86:4d:37:2d:1b:14:35:9a:f5:60:f5:d7:
        6c:e0:8c:d6
-----BEGIN CERTIFICATE REQUEST-----
MIICWzCCAUMCAQAwFjEUMBIGA1UEAwwLMTcyLjE5LjAuNTAwggEiMA0GCSqGSIb3
DQEBAQUAA4IBDwAwggEKAoIBAQDCLfPH6ixoRQuDxtZZL+ivAIhJqeDas/ouuJ/x
9LYOGuBE1bKEvrtQKphtsdelrHl04Kiu1ZSZBFUxqx4NHUD53c6u9uBeHZRRz2fv
K4ySdv5Y8llD2o7XMN4b6cL4/iwQZJAxJJPEkpqPNQwXUKckoSwlHn04+wkFJVsn
XmFpSbr/U3nPYXDp9Ghksu5tidipW7sk2E3U7zC1QOwUhw5H5soYQVvRsU/ndLlW
k0GnFQLGFFEAZtN7ahPuQ4vtWZtrWpe6uIst2xrr2Eg0M7mquXH2EFZhWPRvXmxs
kdVyWUEEbn2WLNTP4Co+AWZJOTdh0Oz3PxIAF92CN0zWWUJFAgMBAAGgADANBgkq
hkiG9w0BAQsFAAOCAQEAB2546KiYAC17JSdeG0luuH+N5ltQug1ri3c04qO6tmJA
IYcPm0G8f3zSAcyqEmiLsmf0tHFAzYD5NxzZJnzvURehjKZbCRSYThWwAecgICxC
eH+jF0bl+5AvhzaT4ssim4OarNsa+oNDfU4v0W2Xbw+WUEVBpOJtATOR2hsVp+ko
DG5X+uYjczIGnjDHnbW0f+SxIflLiX7+TGhuahEYTvPHS6NCmqO8pkpTygHxAbZa
fkIN9Y4PP4AyyrWtCQQvtIR2oKQMcfmHedlREL+2k6S1FtRQ+MQHm8RLiSCff57r
8qKnbB5/bpjr3v2TD633hk03LRsUNZr1YPXXbOCM1g==
-----END CERTIFICATE REQUEST-----
