Certificate Request:
    Data:
        Version: 1 (0x0)
        Subject: CN=fmerinocasallo_reader
        Subject Public Key Info:
            Public Key Algorithm: rsaEncryption
                Public-Key: (2048 bit)
                Modulus:
                    00:8d:33:61:d1:2b:b4:ba:31:2d:9e:17:c5:40:c1:
                    c0:29:29:1c:73:1d:27:d7:fb:ab:26:8f:66:0b:45:
                    50:69:83:3a:80:98:e0:40:c0:98:27:69:40:ac:ce:
                    44:0d:c7:1f:12:73:71:2a:c2:39:b8:ec:a2:2c:24:
                    90:e9:eb:b6:14:1c:3b:92:46:6f:02:b5:2a:f5:fa:
                    43:07:cd:68:04:f7:ba:86:3c:87:fc:c0:a9:5f:75:
                    03:48:bc:0e:ac:ef:69:bb:94:20:bf:25:6e:c9:3b:
                    21:81:ef:84:10:f0:7a:eb:91:02:10:28:9f:df:3b:
                    fc:99:29:c8:5c:15:1f:22:3d:d1:c3:eb:d8:7f:28:
                    92:ee:fd:26:56:51:f0:3c:fb:f0:83:90:e8:fe:d0:
                    b8:d0:2b:65:01:4f:91:5b:ba:ac:4e:c6:9d:9a:7c:
                    1c:d9:a4:9c:06:e1:41:c4:78:3b:fb:2f:ef:50:a5:
                    f8:57:db:01:7d:5f:cf:ba:44:31:ee:18:73:d8:ab:
                    dc:b2:07:6e:b6:1f:ed:fa:85:0b:66:6b:3e:30:a8:
                    a1:7a:a9:78:ec:86:6e:2a:51:22:bc:43:f9:d2:fe:
                    6d:57:23:e9:bd:1a:9f:10:b9:90:d0:62:df:f7:b0:
                    b3:df:96:fa:a9:37:6a:ac:b7:f5:5c:39:42:3b:d1:
                    a2:45
                Exponent: 65537 (0x10001)
        Attributes:
            (none)
            Requested Extensions:
    Signature Algorithm: sha256WithRSAEncryption
    Signature Value:
        0a:de:f9:db:76:58:c2:a8:67:fa:29:46:18:3d:0a:e1:3a:03:
        b8:41:cb:69:3e:f4:9c:2b:24:66:05:8d:98:7b:dd:60:93:2f:
        e4:fb:54:1a:8b:ee:69:c2:11:fc:42:9f:a8:27:53:b9:15:c5:
        3a:50:08:ca:e3:e2:e0:9a:e5:5d:5a:50:e7:7a:70:a2:11:cb:
        ff:b3:28:f7:25:9b:58:8d:75:43:e9:c7:20:1b:dc:fc:72:31:
        4c:41:8a:e8:30:96:99:96:94:2a:4f:30:06:ea:60:ae:05:83:
        c7:d4:cd:d9:13:00:14:10:39:42:a1:97:67:f7:21:74:a9:2b:
        a7:e6:22:5f:77:f8:d9:d9:55:f2:4e:16:e9:1f:4b:cd:42:dd:
        4f:9e:55:b1:24:dc:29:d9:5d:13:17:70:cc:8d:d3:52:8a:f9:
        7f:2c:68:e5:34:26:2d:de:52:ff:45:7b:6b:52:d8:b3:8c:8e:
        b6:7f:ca:0a:ca:34:cb:2d:c0:41:c7:17:b9:f2:31:48:b8:3c:
        6c:b4:4b:fe:4c:0f:18:54:45:78:97:db:44:c9:23:96:b7:1e:
        fa:d8:b1:65:aa:fb:84:3c:0e:53:6e:45:32:3c:52:02:03:ae:
        16:49:aa:22:e0:b9:c0:a3:51:dd:f9:1d:32:12:a9:c8:49:1b:
        d6:b0:bd:06
-----BEGIN CERTIFICATE REQUEST-----
MIICZTCCAU0CAQAwIDEeMBwGA1UEAwwVZm1lcmlub2Nhc2FsbG9fcmVhZGVyMIIB
IjANBgkqhkiG9w0BAQEFAAOCAQ8AMIIBCgKCAQEAjTNh0Su0ujEtnhfFQMHAKSkc
cx0n1/urJo9mC0VQaYM6gJjgQMCYJ2lArM5EDccfEnNxKsI5uOyiLCSQ6eu2FBw7
kkZvArUq9fpDB81oBPe6hjyH/MCpX3UDSLwOrO9pu5QgvyVuyTshge+EEPB665EC
ECif3zv8mSnIXBUfIj3Rw+vYfyiS7v0mVlHwPPvwg5Do/tC40CtlAU+RW7qsTsad
mnwc2aScBuFBxHg7+y/vUKX4V9sBfV/PukQx7hhz2Kvcsgduth/t+oULZms+MKih
eql47IZuKlEivEP50v5tVyPpvRqfELmQ0GLf97Cz35b6qTdqrLf1XDlCO9GiRQID
AQABoAAwDQYJKoZIhvcNAQELBQADggEBAAre+dt2WMKoZ/opRhg9CuE6A7hBy2k+
9JwrJGYFjZh73WCTL+T7VBqL7mnCEfxCn6gnU7kVxTpQCMrj4uCa5V1aUOd6cKIR
y/+zKPclm1iNdUPpxyAb3PxyMUxBiugwlpmWlCpPMAbqYK4Fg8fUzdkTABQQOUKh
l2f3IXSpK6fmIl93+NnZVfJOFukfS81C3U+eVbEk3CnZXRMXcMyN01KK+X8saOU0
Ji3eUv9Fe2tS2LOMjrZ/ygrKNMstwEHHF7nyMUi4PGy0S/5MDxhURXiX20TJI5a3
HvrYsWWq+4Q8DlNuRTI8UgIDrhZJqiLgucCjUd35HTISqchJG9awvQY=
-----END CERTIFICATE REQUEST-----
