Certificate:
    Data:
        Version: 3 (0x2)
        Serial Number:
            3e:5a:fe:10:68:6b:79:a8:fd:87:ab:a2:e0:ea:50:df:fe:9b:09
        Signature Algorithm: sha256WithRSAEncryption
        Issuer: CN=172.19.0.1
        Validity
            Not Before: Aug 22 09:19:16 2024 GMT
            Not After : Aug 22 09:19:16 2025 GMT
        Subject: CN=fmerinocasallo_reader
        Subject Public Key Info:
            Public Key Algorithm: rsaEncryption
                Public-Key: (2048 bit)
                Modulus:
                    00:8d:33:61:d1:2b:b4:ba:31:2d:9e:17:c5:40:c1:
                    c0:29:29:1c:73:1d:27:d7:fb:ab:26:8f:66:0b:45:
                    50:69:83:3a:80:98:e0:40:c0:98:27:69:40:ac:ce:
                    44:0d:c7:1f:12:73:71:2a:c2:39:b8:ec:a2:2c:24:
                    90:e9:eb:b6:14:1c:3b:92:46:6f:02:b5:2a:f5:fa:
                    43:07:cd:68:04:f7:ba:86:3c:87:fc:c0:a9:5f:75:
                    03:48:bc:0e:ac:ef:69:bb:94:20:bf:25:6e:c9:3b:
                    21:81:ef:84:10:f0:7a:eb:91:02:10:28:9f:df:3b:
                    fc:99:29:c8:5c:15:1f:22:3d:d1:c3:eb:d8:7f:28:
                    92:ee:fd:26:56:51:f0:3c:fb:f0:83:90:e8:fe:d0:
                    b8:d0:2b:65:01:4f:91:5b:ba:ac:4e:c6:9d:9a:7c:
                    1c:d9:a4:9c:06:e1:41:c4:78:3b:fb:2f:ef:50:a5:
                    f8:57:db:01:7d:5f:cf:ba:44:31:ee:18:73:d8:ab:
                    dc:b2:07:6e:b6:1f:ed:fa:85:0b:66:6b:3e:30:a8:
                    a1:7a:a9:78:ec:86:6e:2a:51:22:bc:43:f9:d2:fe:
                    6d:57:23:e9:bd:1a:9f:10:b9:90:d0:62:df:f7:b0:
                    b3:df:96:fa:a9:37:6a:ac:b7:f5:5c:39:42:3b:d1:
                    a2:45
                Exponent: 65537 (0x10001)
        X509v3 extensions:
            X509v3 Subject Key Identifier: 
                67:90:7D:F2:8D:62:E4:F8:DA:52:FC:5F:42:BE:5F:A4:A0:8F:2C:5D
            X509v3 Authority Key Identifier: 
                A4:44:97:91:0A:AC:CF:EC:18:EA:D8:35:6F:14:35:5E:7E:D8:CB:09
    Signature Algorithm: sha256WithRSAEncryption
    Signature Value:
        ad:30:f4:b5:49:43:c8:6c:2e:43:6b:2a:35:de:5e:eb:45:c6:
        b7:14:2f:0f:96:a2:0a:d4:b9:94:25:35:82:91:74:44:6e:18:
        ca:e4:8e:bd:57:f7:9c:a2:1c:c0:73:00:6b:4a:f3:d6:4f:40:
        f3:89:49:36:a6:85:c2:7d:c1:48:6c:5f:90:11:4f:13:38:5d:
        c8:f3:67:23:9e:cf:cb:55:e5:eb:3a:11:0a:4a:ab:38:82:d7:
        aa:96:41:50:06:f4:06:88:d1:e2:e1:7c:2d:ef:08:dc:5b:99:
        46:69:a6:bf:24:89:1b:44:7a:8c:2d:83:a1:88:2b:29:5b:51:
        4c:1b:4d:d5:39:4b:ab:bb:ff:3e:69:34:6e:e9:e6:28:85:b4:
        b0:c4:19:6a:a8:94:59:3d:3d:1b:be:a7:e3:63:0e:cb:da:f6:
        5a:ac:89:c7:84:26:9e:8e:f0:5b:5e:40:62:a3:5f:3d:81:ed:
        34:dd:d9:4d:23:30:d2:ca:5f:c7:c6:53:6d:d1:06:12:36:22:
        01:68:be:4f:25:63:4d:0f:54:ca:4e:f8:04:da:82:01:9c:af:
        0d:5f:1d:01:85:29:87:6b:0f:54:b8:02:f5:ec:d5:7b:77:ea:
        57:94:71:de:ab:59:28:7e:6d:c3:6c:5f:d5:3f:ee:7d:65:bf:
        6c:20:6d:55
-----BEGIN CERTIFICATE-----
MIIDBDCCAeygAwIBAgITPlr+EGhreaj9h6ui4OpQ3/6bCTANBgkqhkiG9w0BAQsF
ADAVMRMwEQYDVQQDDAoxNzIuMTkuMC4xMB4XDTI0MDgyMjA5MTkxNloXDTI1MDgy
MjA5MTkxNlowIDEeMBwGA1UEAwwVZm1lcmlub2Nhc2FsbG9fcmVhZGVyMIIBIjAN
BgkqhkiG9w0BAQEFAAOCAQ8AMIIBCgKCAQEAjTNh0Su0ujEtnhfFQMHAKSkccx0n
1/urJo9mC0VQaYM6gJjgQMCYJ2lArM5EDccfEnNxKsI5uOyiLCSQ6eu2FBw7kkZv
ArUq9fpDB81oBPe6hjyH/MCpX3UDSLwOrO9pu5QgvyVuyTshge+EEPB665ECECif
3zv8mSnIXBUfIj3Rw+vYfyiS7v0mVlHwPPvwg5Do/tC40CtlAU+RW7qsTsadmnwc
2aScBuFBxHg7+y/vUKX4V9sBfV/PukQx7hhz2Kvcsgduth/t+oULZms+MKiheql4
7IZuKlEivEP50v5tVyPpvRqfELmQ0GLf97Cz35b6qTdqrLf1XDlCO9GiRQIDAQAB
o0IwQDAdBgNVHQ4EFgQUZ5B98o1i5PjaUvxfQr5fpKCPLF0wHwYDVR0jBBgwFoAU
pESXkQqsz+wY6tg1bxQ1Xn7YywkwDQYJKoZIhvcNAQELBQADggEBAK0w9LVJQ8hs
LkNrKjXeXutFxrcULw+WogrUuZQlNYKRdERuGMrkjr1X95yiHMBzAGtK89ZPQPOJ
STamhcJ9wUhsX5ARTxM4XcjzZyOez8tV5es6EQpKqziC16qWQVAG9AaI0eLhfC3v
CNxbmUZppr8kiRtEeowtg6GIKylbUUwbTdU5S6u7/z5pNG7p5iiFtLDEGWqolFk9
PRu+p+NjDsva9lqsiceEJp6O8FteQGKjXz2B7TTd2U0jMNLKX8fGU23RBhI2IgFo
vk8lY00PVMpO+ATaggGcrw1fHQGFKYdrD1S4AvXs1Xt36leUcd6rWSh+bcNsX9U/
7n1lv2wgbVU=
-----END CERTIFICATE-----
